target datalayout = "e-m:e-p270:32:32-p271:32:32-p272:64:64-i64:64-i128:128-f80:128-n8:16:32:64-S128"
target triple = "x86_64-pc-linux-gnu"

%struct.rb_data_type_struct = type { ptr, %struct.anon, ptr, ptr, i64 }
%struct.anon = type { ptr, ptr, ptr, ptr, [1 x ptr] }
%struct.RString = type { %struct.RBasic, i64, %union.anon }
%struct.RBasic = type { i64, i64 }
%union.anon = type { %struct.anon.0 }
%struct.anon.0 = type { ptr, %union.anon.1 }
%union.anon.1 = type { i64 }
%struct.anon.2 = type { [1 x i8] }

@ossl_cipher_type = internal constant %struct.rb_data_type_struct { ptr @.str.30, %struct.anon { ptr null, ptr @ossl_cipher_free, ptr null, ptr null, [1 x ptr] zeroinitializer }, ptr null, ptr null, i64 33 }, align 8
@rb_eRuntimeError = external global i64, align 8
@.str = private unnamed_addr constant [24 x i8] c"Cipher not initialized!\00", align 1
@eCipherError = internal global i64 0, align 8
@.str.45 = private unnamed_addr constant [48 x i8] c"authentication tag not supported by this cipher\00", align 1
@.str.46 = private unnamed_addr constant [23 x i8] c"unable to set AEAD tag\00", align 1

; Function Attrs: inlinehint nounwind sspstrong willreturn memory(read) uwtable
define internal i64 @RB_FL_TEST_RAW(i64 noundef %0, i64 noundef %1) #5 {
  %3 = alloca i64, align 8
  %4 = alloca i64, align 8
  store i64 %0, ptr %3, align 8, !tbaa !6
  store i64 %1, ptr %4, align 8, !tbaa !6
  %5 = load i64, ptr %3, align 8, !tbaa !6
  %6 = inttoptr i64 %5 to ptr
  %7 = getelementptr inbounds nuw %struct.RBasic, ptr %6, i32 0, i32 0
  %8 = load i64, ptr %7, align 8, !tbaa !32
  %9 = load i64, ptr %4, align 8, !tbaa !6
  %10 = and i64 %8, %9
  ret i64 %10
}

; Function Attrs: inlinehint nounwind sspstrong willreturn memory(read) uwtable
define internal zeroext i1 @RB_FL_ANY_RAW(i64 noundef %0, i64 noundef %1) #5 {
  %3 = alloca i64, align 8
  %4 = alloca i64, align 8
  store i64 %0, ptr %3, align 8, !tbaa !6
  store i64 %1, ptr %4, align 8, !tbaa !6
  %5 = load i64, ptr %3, align 8, !tbaa !6
  %6 = load i64, ptr %4, align 8, !tbaa !6
  %7 = call i64 @RB_FL_TEST_RAW(i64 noundef %5, i64 noundef %6) #23
  %8 = icmp ne i64 %7, 0
  ret i1 %8
}

; Function Attrs: inlinehint nounwind sspstrong uwtable
define internal i32 @rb_long2int_inline(i64 noundef %0) #4 {
  %2 = alloca i64, align 8
  %3 = alloca i32, align 4
  store i64 %0, ptr %2, align 8, !tbaa !6
  call void @llvm.lifetime.start.p0(i64 4, ptr %3) #20
  %4 = load i64, ptr %2, align 8, !tbaa !6
  %5 = trunc i64 %4 to i32
  store i32 %5, ptr %3, align 4, !tbaa !22
  %6 = load i32, ptr %3, align 4, !tbaa !22
  %7 = sext i32 %6 to i64
  %8 = load i64, ptr %2, align 8, !tbaa !6
  %9 = icmp ne i64 %7, %8
  br i1 %9, label %10, label %12

10:                                               ; preds = %1
  %11 = load i64, ptr %2, align 8, !tbaa !6
  call void @rb_out_of_int(i64 noundef %11) #26
  unreachable

12:                                               ; preds = %1
  %13 = load i32, ptr %3, align 4, !tbaa !22
  call void @llvm.lifetime.end.p0(i64 4, ptr %3) #20
  ret i32 %13
}

; Function Attrs: inlinehint nounwind sspstrong willreturn memory(read) uwtable
define internal i64 @RSTRING_LEN(i64 noundef %0) #5 {
  %2 = alloca i64, align 8
  store i64 %0, ptr %2, align 8, !tbaa !6
  %3 = load i64, ptr %2, align 8, !tbaa !6
  %4 = inttoptr i64 %3 to ptr
  %5 = getelementptr inbounds nuw %struct.RString, ptr %4, i32 0, i32 1
  %6 = load i64, ptr %5, align 8, !tbaa !30
  ret i64 %6
}

; Function Attrs: inlinehint nounwind sspstrong willreturn memory(read, argmem: readwrite) uwtable
define internal void @rbimpl_rstring_getmem(ptr dead_on_unwind noalias writable sret(%struct.RString) align 8 %0, i64 noundef %1) #6 {
  %3 = alloca i64, align 8
  store i64 %1, ptr %3, align 8, !tbaa !6
  %4 = load i64, ptr %3, align 8, !tbaa !6
  %5 = call zeroext i1 @RB_FL_ANY_RAW(i64 noundef %4, i64 noundef 8192) #23
  br i1 %5, label %6, label %9

6:                                                ; preds = %2
  %7 = load i64, ptr %3, align 8, !tbaa !6
  %8 = inttoptr i64 %7 to ptr
  call void @llvm.memcpy.p0.p0.i64(ptr align 8 %0, ptr align 8 %8, i64 40, i1 false), !tbaa.struct !29
  br label %20

9:                                                ; preds = %2
  %10 = load i64, ptr %3, align 8, !tbaa !6
  %11 = call i64 @RSTRING_LEN(i64 noundef %10) #23
  %12 = getelementptr inbounds nuw %struct.RString, ptr %0, i32 0, i32 1
  store i64 %11, ptr %12, align 8, !tbaa !30
  %13 = load i64, ptr %3, align 8, !tbaa !6
  %14 = inttoptr i64 %13 to ptr
  %15 = getelementptr inbounds nuw %struct.RString, ptr %14, i32 0, i32 2
  %16 = getelementptr inbounds nuw %struct.anon.2, ptr %15, i32 0, i32 0
  %17 = getelementptr inbounds [1 x i8], ptr %16, i64 0, i64 0
  %18 = getelementptr inbounds nuw %struct.RString, ptr %0, i32 0, i32 2
  %19 = getelementptr inbounds nuw %struct.anon.0, ptr %18, i32 0, i32 0
  store ptr %17, ptr %19, align 8, !tbaa !15
  br label %20

20:                                               ; preds = %9, %6
  ret void
}

; Function Attrs: inlinehint nounwind sspstrong uwtable
define internal i32 @RSTRING_LENINT(i64 noundef %0) #4 {
  %2 = alloca i64, align 8
  store i64 %0, ptr %2, align 8, !tbaa !6
  %3 = load i64, ptr %2, align 8, !tbaa !6
  %4 = call i64 @RSTRING_LEN(i64 noundef %3) #23
  %5 = call i32 @rb_long2int_inline(i64 noundef %4)
  ret i32 %5
}

; Function Attrs: inlinehint nounwind sspstrong uwtable
define internal ptr @RSTRING_PTR(i64 noundef %0) #4 {
  %2 = alloca i64, align 8
  %3 = alloca ptr, align 8
  %4 = alloca %struct.RString, align 8
  store i64 %0, ptr %2, align 8, !tbaa !6
  call void @llvm.lifetime.start.p0(i64 8, ptr %3) #20
  %5 = load i64, ptr %2, align 8, !tbaa !6
  call void @rbimpl_rstring_getmem(ptr dead_on_unwind writable sret(%struct.RString) align 8 %4, i64 noundef %5) #22
  %6 = getelementptr inbounds nuw %struct.RString, ptr %4, i32 0, i32 2
  %7 = getelementptr inbounds nuw %struct.anon.0, ptr %6, i32 0, i32 0
  %8 = load ptr, ptr %7, align 8, !tbaa !15
  store ptr %8, ptr %3, align 8, !tbaa !16
  %9 = load ptr, ptr %3, align 8, !tbaa !16
  call void @llvm.lifetime.end.p0(i64 8, ptr %3) #20
  ret ptr %9
}

; Function Attrs: nounwind sspstrong uwtable
define internal i64 @ossl_cipher_set_auth_tag(i64 noundef %0, i64 noundef %1) #0 {
  %3 = alloca i64, align 8
  %4 = alloca i64, align 8
  %5 = alloca ptr, align 8
  %6 = alloca ptr, align 8
  %7 = alloca i32, align 4
  store i64 %0, ptr %3, align 8, !tbaa !6
  store i64 %1, ptr %4, align 8, !tbaa !6
  call void @llvm.lifetime.start.p0(i64 8, ptr %5) #20
  call void @llvm.lifetime.start.p0(i64 8, ptr %6) #20
  call void @llvm.lifetime.start.p0(i64 4, ptr %7) #20
  %8 = call i64 @rb_string_value(ptr noundef %4)
  %9 = load i64, ptr %4, align 8, !tbaa !6
  %10 = call ptr @RSTRING_PTR(i64 noundef %9)
  store ptr %10, ptr %6, align 8, !tbaa !16
  %11 = load i64, ptr %4, align 8, !tbaa !6
  %12 = call i32 @RSTRING_LENINT(i64 noundef %11)
  store i32 %12, ptr %7, align 4, !tbaa !22
  br label %13

13:                                               ; preds = %2
  br label %14

14:                                               ; preds = %13
  %15 = load i64, ptr %3, align 8, !tbaa !6
  %16 = call ptr @rb_check_typeddata(i64 noundef %15, ptr noundef @ossl_cipher_type)
  store ptr %16, ptr %5, align 8, !tbaa !10
  br label %17

17:                                               ; preds = %14
  br label %18

18:                                               ; preds = %17
  %19 = load ptr, ptr %5, align 8, !tbaa !10
  %20 = icmp ne ptr %19, null
  br i1 %20, label %23, label %21

21:                                               ; preds = %18
  %22 = load i64, ptr @rb_eRuntimeError, align 8, !tbaa !6
  call void (i64, ptr, ...) @ossl_raise(i64 noundef %22, ptr noundef @.str) #21
  unreachable

23:                                               ; preds = %18
  br label %24

24:                                               ; preds = %23
  br label %25

25:                                               ; preds = %24
  %26 = load ptr, ptr %5, align 8, !tbaa !10
  %27 = call ptr @EVP_CIPHER_CTX_cipher(ptr noundef %26)
  %28 = call i64 @EVP_CIPHER_get_flags(ptr noundef %27)
  %29 = and i64 %28, 2097152
  %30 = icmp ne i64 %29, 0
  br i1 %30, label %33, label %31

31:                                               ; preds = %25
  %32 = load i64, ptr @eCipherError, align 8, !tbaa !6
  call void (i64, ptr, ...) @ossl_raise(i64 noundef %32, ptr noundef @.str.45) #21
  unreachable

33:                                               ; preds = %25
  %34 = load ptr, ptr %5, align 8, !tbaa !10
  %35 = load i32, ptr %7, align 4, !tbaa !22
  %36 = load ptr, ptr %6, align 8, !tbaa !16
  %37 = call i32 @EVP_CIPHER_CTX_ctrl(ptr noundef %34, i32 noundef 17, i32 noundef %35, ptr noundef %36)
  %38 = icmp ne i32 %37, 0
  br i1 %38, label %41, label %39

39:                                               ; preds = %33
  %40 = load i64, ptr @eCipherError, align 8, !tbaa !6
  call void (i64, ptr, ...) @ossl_raise(i64 noundef %40, ptr noundef @.str.46) #21
  unreachable

41:                                               ; preds = %33
  %42 = load i64, ptr %4, align 8, !tbaa !6
  call void @llvm.lifetime.end.p0(i64 4, ptr %7) #20
  call void @llvm.lifetime.end.p0(i64 8, ptr %6) #20
  call void @llvm.lifetime.end.p0(i64 8, ptr %5) #20
  ret i64 %42
}