; Function Attrs: nounwind sspstrong uwtable
define internal i64 @ossl_cipher_set_auth_tag(i64 noundef %0, i64 noundef %1) #0 {
  %3 = alloca i64, align 8
  store i64 %1, ptr %3, align 8, !tbaa !6
  %4 = call i64 @rb_string_value(ptr noundef nonnull %3) #11
  %5 = load i64, ptr %3, align 8, !tbaa !6
  %6 = inttoptr i64 %5 to ptr
  %7 = load i64, ptr %6, align 8, !tbaa !10, !noalias !53
  %8 = and i64 %7, 8192
  %.not.i.i = icmp eq i64 %8, 0
  %9 = getelementptr inbounds nuw i8, ptr %6, i64 24
  br i1 %.not.i.i, label %RSTRING_PTR.exit, label %10

10:                                               ; preds = %2
  %.sroa.2.0.copyload.i = load ptr, ptr %9, align 8
  br label %RSTRING_PTR.exit

RSTRING_PTR.exit:                                 ; preds = %2, %10
  %.sroa.2.0.i = phi ptr [ %.sroa.2.0.copyload.i, %10 ], [ %9, %2 ]
  %11 = getelementptr inbounds nuw i8, ptr %6, i64 16
  %12 = load i64, ptr %11, align 8, !tbaa !26
  %13 = add i64 %12, 2147483648
  %.not.i.i7 = icmp ult i64 %13, 4294967296
  br i1 %.not.i.i7, label %RSTRING_LENINT.exit, label %14

14:                                               ; preds = %RSTRING_PTR.exit
  call void @rb_out_of_int(i64 noundef %12) #13
  unreachable

RSTRING_LENINT.exit:                              ; preds = %RSTRING_PTR.exit
  %15 = trunc i64 %12 to i32
  %16 = call ptr @rb_check_typeddata(i64 noundef %0, ptr noundef nonnull @ossl_cipher_type) #11
  %.not = icmp eq ptr %16, null
  br i1 %.not, label %17, label %19

17:                                               ; preds = %RSTRING_LENINT.exit
  %18 = load i64, ptr @rb_eRuntimeError, align 8, !tbaa !6
  call void (i64, ptr, ...) @ossl_raise(i64 noundef %18, ptr noundef nonnull @.str) #12
  unreachable

19:                                               ; preds = %RSTRING_LENINT.exit
  %20 = call ptr @EVP_CIPHER_CTX_cipher(ptr noundef nonnull %16) #11
  %21 = call i64 @EVP_CIPHER_get_flags(ptr noundef %20) #11
  %22 = and i64 %21, 2097152
  %.not5 = icmp eq i64 %22, 0
  br i1 %.not5, label %23, label %25

23:                                               ; preds = %19
  %24 = load i64, ptr @eCipherError, align 8, !tbaa !6
  call void (i64, ptr, ...) @ossl_raise(i64 noundef %24, ptr noundef nonnull @.str.45) #12
  unreachable

25:                                               ; preds = %19
  %26 = call i32 @EVP_CIPHER_CTX_ctrl(ptr noundef nonnull %16, i32 noundef 17, i32 noundef %15, ptr noundef %.sroa.2.0.i) #11
  %.not6 = icmp eq i32 %26, 0
  br i1 %.not6, label %27, label %29

27:                                               ; preds = %25
  %28 = load i64, ptr @eCipherError, align 8, !tbaa !6
  call void (i64, ptr, ...) @ossl_raise(i64 noundef %28, ptr noundef nonnull @.str.46) #12
  unreachable

29:                                               ; preds = %25
  %30 = load i64, ptr %3, align 8, !tbaa !6
  ret i64 %30
}